target datalayout = "e-m:e-p270:32:32-p271:32:32-p272:64:64-i64:64-i128:128-f80:128-n8:16:32:64-S128"
target triple = "x86_64-pc-linux-gnu"

; Function Attrs: nounwind uwtable
define dso_local i32 @hashTypeGetValueObject(ptr noundef %0, ptr noundef %1, ptr noundef %2, i32 noundef %3, ptr noundef %4, ptr noundef %5, ptr noundef %6) #1 {
  %8 = alloca i32, align 4
  %9 = alloca ptr, align 8
  %10 = alloca ptr, align 8
  %11 = alloca ptr, align 8
  %12 = alloca i32, align 4
  %13 = alloca ptr, align 8
  %14 = alloca ptr, align 8
  %15 = alloca ptr, align 8
  %16 = alloca ptr, align 8
  %17 = alloca i32, align 4
  %18 = alloca i64, align 8
  %19 = alloca i32, align 4
  %20 = alloca i32, align 4
  store ptr %0, ptr %9, align 8, !tbaa !27
  store ptr %1, ptr %10, align 8, !tbaa !15
  store ptr %2, ptr %11, align 8, !tbaa !33
  store i32 %3, ptr %12, align 4, !tbaa !13
  store ptr %4, ptr %13, align 8, !tbaa !97
  store ptr %5, ptr %14, align 8, !tbaa !107
  store ptr %6, ptr %15, align 8, !tbaa !103
  call void @llvm.lifetime.start.p0(i64 8, ptr %16) #12
  call void @llvm.lifetime.start.p0(i64 4, ptr %17) #12
  call void @llvm.lifetime.start.p0(i64 8, ptr %18) #12
  %21 = load ptr, ptr %15, align 8, !tbaa !103
  %22 = icmp ne ptr %21, null
  br i1 %22, label %23, label %25

23:                                               ; preds = %7
  %24 = load ptr, ptr %15, align 8, !tbaa !103
  store i32 0, ptr %24, align 4, !tbaa !13
  br label %25

25:                                               ; preds = %23, %7
  %26 = load ptr, ptr %13, align 8, !tbaa !97
  %27 = icmp ne ptr %26, null
  br i1 %27, label %28, label %30

28:                                               ; preds = %25
  %29 = load ptr, ptr %13, align 8, !tbaa !97
  store ptr null, ptr %29, align 8, !tbaa !15
  br label %30

30:                                               ; preds = %28, %25
  call void @llvm.lifetime.start.p0(i64 4, ptr %19) #12
  %31 = load ptr, ptr %9, align 8, !tbaa !27
  %32 = load ptr, ptr %10, align 8, !tbaa !15
  %33 = load ptr, ptr %11, align 8, !tbaa !33
  %34 = load i32, ptr %12, align 4, !tbaa !13
  %35 = load ptr, ptr %14, align 8, !tbaa !107
  %36 = call i32 @hashTypeGetValue(ptr noundef %31, ptr noundef %32, ptr noundef %33, ptr noundef %16, ptr noundef %17, ptr noundef %18, i32 noundef %34, ptr noundef %35)
  store i32 %36, ptr %19, align 4, !tbaa !13
  %37 = load i32, ptr %19, align 4, !tbaa !13
  %38 = icmp eq i32 %37, 0
  br i1 %38, label %39, label %66

39:                                               ; preds = %30
  %40 = load ptr, ptr %14, align 8, !tbaa !107
  %41 = icmp ne ptr %40, null
  br i1 %41, label %42, label %48

42:                                               ; preds = %39
  %43 = load ptr, ptr %14, align 8, !tbaa !107
  %44 = load i64, ptr %43, align 8, !tbaa !31
  %45 = icmp eq i64 %44, 281474976710656
  br i1 %45, label %46, label %48

46:                                               ; preds = %42
  %47 = load ptr, ptr %14, align 8, !tbaa !107
  store i64 0, ptr %47, align 8, !tbaa !31
  br label %48

48:                                               ; preds = %46, %42, %39
  %49 = load ptr, ptr %13, align 8, !tbaa !97
  %50 = icmp ne ptr %49, null
  br i1 %50, label %51, label %65

51:                                               ; preds = %48
  %52 = load ptr, ptr %16, align 8, !tbaa !33
  %53 = icmp ne ptr %52, null
  br i1 %53, label %54, label %60

54:                                               ; preds = %51
  %55 = load ptr, ptr %16, align 8, !tbaa !33
  %56 = load i32, ptr %17, align 4, !tbaa !13
  %57 = zext i32 %56 to i64
  %58 = call ptr @createStringObject(ptr noundef %55, i64 noundef %57)
  %59 = load ptr, ptr %13, align 8, !tbaa !97
  store ptr %58, ptr %59, align 8, !tbaa !15
  br label %64

60:                                               ; preds = %51
  %61 = load i64, ptr %18, align 8, !tbaa !37
  %62 = call ptr @createStringObjectFromLongLong(i64 noundef %61)
  %63 = load ptr, ptr %13, align 8, !tbaa !97
  store ptr %62, ptr %63, align 8, !tbaa !15
  br label %64

64:                                               ; preds = %60, %54
  br label %65

65:                                               ; preds = %64, %48
  store i32 1, ptr %8, align 4
  store i32 1, ptr %20, align 4
  br label %75

66:                                               ; preds = %30
  %67 = load i32, ptr %19, align 4, !tbaa !13
  %68 = icmp eq i32 %67, 3
  br i1 %68, label %69, label %74

69:                                               ; preds = %66
  %70 = load ptr, ptr %15, align 8, !tbaa !103
  %71 = icmp ne ptr %70, null
  br i1 %71, label %72, label %74

72:                                               ; preds = %69
  %73 = load ptr, ptr %15, align 8, !tbaa !103
  store i32 1, ptr %73, align 4, !tbaa !13
  br label %74

74:                                               ; preds = %72, %69, %66
  store i32 0, ptr %8, align 4
  store i32 1, ptr %20, align 4
  br label %75

75:                                               ; preds = %74, %65
  call void @llvm.lifetime.end.p0(i64 4, ptr %19) #12
  call void @llvm.lifetime.end.p0(i64 8, ptr %18) #12
  call void @llvm.lifetime.end.p0(i64 4, ptr %17) #12
  call void @llvm.lifetime.end.p0(i64 8, ptr %16) #12
  %76 = load i32, ptr %8, align 4
  ret i32 %76
}