; Function Attrs: nounwind uwtable
define dso_local range(i32 0, 2) i32 @hashTypeGetValueObject(ptr noundef %0, ptr noundef captures(none) %1, ptr noundef %2, i32 noundef %3, ptr noundef writeonly captures(address_is_null) %4, ptr noundef captures(address_is_null) %5, ptr noundef writeonly captures(address_is_null) %6) local_unnamed_addr #1 {
  %8 = alloca ptr, align 8
  %9 = alloca i32, align 4
  %10 = alloca i64, align 8
  call void @llvm.lifetime.start.p0(i64 8, ptr nonnull %8) #16
  call void @llvm.lifetime.start.p0(i64 4, ptr nonnull %9) #16
  call void @llvm.lifetime.start.p0(i64 8, ptr nonnull %10) #16
  %11 = icmp ne ptr %6, null
  br i1 %11, label %12, label %13

12:                                               ; preds = %7
  store i32 0, ptr %6, align 4, !tbaa !65
  br label %13

13:                                               ; preds = %12, %7
  %.not = icmp eq ptr %4, null
  br i1 %.not, label %15, label %14

14:                                               ; preds = %13
  store ptr null, ptr %4, align 8, !tbaa !64
  br label %15

15:                                               ; preds = %14, %13
  %16 = call i32 @hashTypeGetValue(ptr noundef %0, ptr noundef %1, ptr noundef %2, ptr noundef nonnull %8, ptr noundef nonnull %9, ptr noundef nonnull %10, i32 noundef %3, ptr noundef %5)
  %17 = icmp eq i32 %16, 0
  br i1 %17, label %18, label %33

18:                                               ; preds = %15
  %.not26 = icmp eq ptr %5, null
  br i1 %.not26, label %23, label %19

19:                                               ; preds = %18
  %20 = load i64, ptr %5, align 8, !tbaa !28
  %21 = icmp eq i64 %20, 281474976710656
  br i1 %21, label %22, label %23

22:                                               ; preds = %19
  store i64 0, ptr %5, align 8, !tbaa !28
  br label %23

23:                                               ; preds = %22, %19, %18
  br i1 %.not, label %36, label %24

24:                                               ; preds = %23
  %25 = load ptr, ptr %8, align 8, !tbaa !85
  %.not27 = icmp eq ptr %25, null
  br i1 %.not27, label %30, label %26

26:                                               ; preds = %24
  %27 = load i32, ptr %9, align 4, !tbaa !65
  %28 = zext i32 %27 to i64
  %29 = call ptr @createStringObject(ptr noundef nonnull %25, i64 noundef %28) #16
  store ptr %29, ptr %4, align 8, !tbaa !64
  br label %36

30:                                               ; preds = %24
  %31 = load i64, ptr %10, align 8, !tbaa !24
  %32 = call ptr @createStringObjectFromLongLong(i64 noundef %31) #16
  store ptr %32, ptr %4, align 8, !tbaa !64
  br label %36

33:                                               ; preds = %15
  %34 = icmp eq i32 %16, 3
  %or.cond = and i1 %11, %34
  br i1 %or.cond, label %35, label %36

35:                                               ; preds = %33
  store i32 1, ptr %6, align 4, !tbaa !65
  br label %36

36:                                               ; preds = %33, %35, %23, %30, %26
  %.0 = phi i32 [ 1, %26 ], [ 1, %30 ], [ 1, %23 ], [ 0, %35 ], [ 0, %33 ]
  call void @llvm.lifetime.end.p0(i64 8, ptr nonnull %10) #16
  call void @llvm.lifetime.end.p0(i64 4, ptr nonnull %9) #16
  call void @llvm.lifetime.end.p0(i64 8, ptr nonnull %8) #16
  ret i32 %.0
}